; Function Attrs: nounwind uwtable
define noalias noundef nonnull ptr @l_Lean_IR_UniqueIds_checkId(ptr noundef %0, ptr noundef %1) local_unnamed_addr #0 {
  %3 = tail call ptr @l_Lean_RBNode_findCore___at_Lean_IR_UniqueIds_checkId___spec__1(ptr noundef %1, ptr noundef %0)
  %4 = ptrtoint ptr %3 to i64
  %5 = and i64 %4, 1
  %.not.i23 = icmp eq i64 %5, 0
  br i1 %.not.i23, label %lean_obj_tag.exit.thread, label %lean_obj_tag.exit

lean_obj_tag.exit:                                ; preds = %2
  %6 = and i64 %4, 8589934590
  %7 = icmp eq i64 %6, 0
  br i1 %7, label %10, label %lean_dec.exit

lean_obj_tag.exit.thread:                         ; preds = %2
  %8 = getelementptr i8, ptr %3, i64 4
  %.val.i = load i32, ptr %8, align 4
  %9 = icmp ult i32 %.val.i, 16777216
  br i1 %9, label %10, label %.thread

10:                                               ; preds = %lean_obj_tag.exit.thread, %lean_obj_tag.exit
  %11 = tail call ptr @l_Lean_RBNode_insert___at_Lean_IR_mkIndexSet___spec__1(ptr noundef %1, ptr noundef %0, ptr noundef nonnull inttoptr (i64 1 to ptr)) #4
  tail call void @lean_inc_heartbeat() #4
  %12 = tail call noalias ptr @mi_malloc_small(i64 noundef 24) #4
  %13 = icmp eq ptr %12, null
  br i1 %13, label %14, label %lean_alloc_ctor.exit

14:                                               ; preds = %10
  tail call void @lean_internal_panic_out_of_memory() #5
  unreachable

.thread:                                          ; preds = %lean_obj_tag.exit.thread
  %15 = load i32, ptr %3, align 4, !tbaa !9
  %16 = icmp sgt i32 %15, 1
  br i1 %16, label %17, label %19, !prof !12

17:                                               ; preds = %.thread
  %18 = add nsw i32 %15, -1
  store i32 %18, ptr %3, align 4, !tbaa !9
  br label %lean_dec.exit

19:                                               ; preds = %.thread
  %.not.i21 = icmp eq i32 %15, 0
  br i1 %.not.i21, label %lean_dec.exit, label %20

20:                                               ; preds = %19
  tail call void @lean_dec_ref_cold(ptr noundef nonnull %3) #4
  br label %lean_dec.exit

lean_dec.exit:                                    ; preds = %lean_obj_tag.exit, %20, %19, %17
  %21 = ptrtoint ptr %0 to i64
  %22 = and i64 %21, 1
  %.not = icmp eq i64 %22, 0
  br i1 %.not, label %23, label %lean_dec.exit20

23:                                               ; preds = %lean_dec.exit
  %24 = load i32, ptr %0, align 4, !tbaa !9
  %25 = icmp sgt i32 %24, 1
  br i1 %25, label %26, label %28, !prof !12

26:                                               ; preds = %23
  %27 = add nsw i32 %24, -1
  store i32 %27, ptr %0, align 4, !tbaa !9
  br label %lean_dec.exit20

28:                                               ; preds = %23
  %.not.i = icmp eq i32 %24, 0
  br i1 %.not.i, label %lean_dec.exit20, label %29

29:                                               ; preds = %28
  tail call void @lean_dec_ref_cold(ptr noundef nonnull %0) #4
  br label %lean_dec.exit20

lean_dec.exit20:                                  ; preds = %29, %28, %26, %lean_dec.exit
  tail call void @lean_inc_heartbeat() #4
  %30 = tail call noalias ptr @mi_malloc_small(i64 noundef 24) #4
  %31 = icmp eq ptr %30, null
  br i1 %31, label %32, label %lean_alloc_ctor.exit

32:                                               ; preds = %lean_dec.exit20
  tail call void @lean_internal_panic_out_of_memory() #5
  unreachable

lean_alloc_ctor.exit:                             ; preds = %lean_dec.exit20, %10
  %.sink33 = phi ptr [ %12, %10 ], [ %30, %lean_dec.exit20 ]
  %.sink28 = phi ptr [ inttoptr (i64 3 to ptr), %10 ], [ inttoptr (i64 1 to ptr), %lean_dec.exit20 ]
  %.sink = phi ptr [ %11, %10 ], [ %1, %lean_dec.exit20 ]
  %33 = getelementptr inbounds nuw i8, ptr %.sink33, i64 4
  store i32 1, ptr %.sink33, align 4, !tbaa !9
  store i32 131096, ptr %33, align 4
  %34 = getelementptr inbounds nuw i8, ptr %.sink33, i64 8
  store ptr %.sink28, ptr %34, align 8, !tbaa !5
  %35 = getelementptr inbounds nuw i8, ptr %.sink33, i64 16
  store ptr %.sink, ptr %35, align 8, !tbaa !5
  ret ptr %.sink33
}